; Function Attrs: mustprogress uwtable
define void @_ZN3g2o11CommandArgs5paramERKNSt7__cxx1112basic_stringIcSt11char_traitsIcESaIcEEERS6_S8_S8_(ptr noundef nonnull align 8 dereferenceable(144) %0, ptr noundef nonnull align 8 dereferenceable(32) %1, ptr noundef nonnull align 8 dereferenceable(32) %2, ptr noundef nonnull align 8 dereferenceable(32) %3, ptr noundef nonnull align 8 dereferenceable(32) %4) local_unnamed_addr #5 align 2 personality ptr @__gxx_personality_v0 {
  %6 = alloca %"struct.g2o::CommandArgs::CommandArgument", align 8
  call void @_ZN3g2o11CommandArgs15CommandArgumentC2Ev(ptr noundef nonnull align 8 dereferenceable(82) %6)
  %7 = invoke noundef nonnull align 8 dereferenceable(32) ptr @_ZNSt7__cxx1112basic_stringIcSt11char_traitsIcESaIcEEaSERKS4_(ptr noundef nonnull align 8 dereferenceable(32) %6, ptr noundef nonnull align 8 dereferenceable(32) %1)
          to label %8 unwind label %30

8:                                                ; preds = %5
  %9 = getelementptr inbounds nuw i8, ptr %6, i64 32
  %10 = invoke noundef nonnull align 8 dereferenceable(32) ptr @_ZNSt7__cxx1112basic_stringIcSt11char_traitsIcESaIcEEaSERKS4_(ptr noundef nonnull align 8 dereferenceable(32) %9, ptr noundef nonnull align 8 dereferenceable(32) %4)
          to label %11 unwind label %30

11:                                               ; preds = %8
  %12 = getelementptr inbounds nuw i8, ptr %6, i64 64
  store i32 3, ptr %12, align 8
  %13 = getelementptr inbounds nuw i8, ptr %6, i64 72
  store ptr %2, ptr %13, align 8
  %14 = getelementptr inbounds nuw i8, ptr %6, i64 80
  store i8 0, ptr %14, align 8
  %15 = invoke noundef nonnull align 8 dereferenceable(32) ptr @_ZNSt7__cxx1112basic_stringIcSt11char_traitsIcESaIcEEaSERKS4_(ptr noundef nonnull align 8 dereferenceable(32) %2, ptr noundef nonnull align 8 dereferenceable(32) %3)
          to label %16 unwind label %30

16:                                               ; preds = %11
  %17 = getelementptr inbounds i8, ptr %0, i64 16
  %18 = load ptr, ptr %17, align 8
  %19 = getelementptr inbounds i8, ptr %0, i64 24
  %20 = load ptr, ptr %19, align 8
  %.not.i = icmp eq ptr %18, %20
  br i1 %.not.i, label %28, label %21

21:                                               ; preds = %16
  invoke void @_ZNSt7__cxx1112basic_stringIcSt11char_traitsIcESaIcEEC1ERKS4_(ptr noundef nonnull align 8 dereferenceable(32) %18, ptr noundef nonnull align 8 dereferenceable(32) %6)
          to label %.noexc unwind label %30

.noexc:                                           ; preds = %21
  %22 = getelementptr inbounds nuw i8, ptr %18, i64 32
  invoke void @_ZNSt7__cxx1112basic_stringIcSt11char_traitsIcESaIcEEC1ERKS4_(ptr noundef nonnull align 8 dereferenceable(32) %22, ptr noundef nonnull align 8 dereferenceable(32) %9)
          to label %_ZNSt16allocator_traitsISaIN3g2o11CommandArgs15CommandArgumentEEE9constructIS2_JRKS2_EEEvRS3_PT_DpOT0_.exit.i unwind label %23

23:                                               ; preds = %.noexc
  %24 = landingpad { ptr, i32 }
          cleanup
  call void @_ZNSt7__cxx1112basic_stringIcSt11char_traitsIcESaIcEED1Ev(ptr noundef nonnull align 8 dereferenceable(32) %18) #20
  br label %.body

_ZNSt16allocator_traitsISaIN3g2o11CommandArgs15CommandArgumentEEE9constructIS2_JRKS2_EEEvRS3_PT_DpOT0_.exit.i: ; preds = %.noexc
  %25 = getelementptr inbounds nuw i8, ptr %18, i64 64
  call void @llvm.memcpy.p0.p0.i64(ptr noundef nonnull align 8 dereferenceable(18) %25, ptr noundef nonnull align 8 dereferenceable(18) %12, i64 18, i1 false)
  %26 = load ptr, ptr %17, align 8
  %27 = getelementptr inbounds i8, ptr %26, i64 88
  store ptr %27, ptr %17, align 8
  br label %_ZNSt6vectorIN3g2o11CommandArgs15CommandArgumentESaIS2_EE9push_backERKS2_.exit

28:                                               ; preds = %16
  %29 = getelementptr inbounds nuw i8, ptr %0, i64 8
  invoke void @_ZNSt6vectorIN3g2o11CommandArgs15CommandArgumentESaIS2_EE17_M_realloc_insertIJRKS2_EEEvN9__gnu_cxx17__normal_iteratorIPS2_S4_EEDpOT_(ptr noundef nonnull align 8 dereferenceable(24) %29, ptr %18, ptr noundef nonnull align 8 dereferenceable(82) %6)
          to label %_ZNSt6vectorIN3g2o11CommandArgs15CommandArgumentESaIS2_EE9push_backERKS2_.exit unwind label %30

_ZNSt6vectorIN3g2o11CommandArgs15CommandArgumentESaIS2_EE9push_backERKS2_.exit: ; preds = %_ZNSt16allocator_traitsISaIN3g2o11CommandArgs15CommandArgumentEEE9constructIS2_JRKS2_EEEvRS3_PT_DpOT0_.exit.i, %28
  call void @_ZNSt7__cxx1112basic_stringIcSt11char_traitsIcESaIcEED1Ev(ptr noundef nonnull align 8 dereferenceable(32) %9) #20
  call void @_ZNSt7__cxx1112basic_stringIcSt11char_traitsIcESaIcEED1Ev(ptr noundef nonnull align 8 dereferenceable(32) %6) #20
  ret void

30:                                               ; preds = %28, %21, %11, %8, %5
  %31 = landingpad { ptr, i32 }
          cleanup
  br label %.body

.body:                                            ; preds = %23, %30
  %eh.lpad-body = phi { ptr, i32 } [ %31, %30 ], [ %24, %23 ]
  %32 = getelementptr inbounds nuw i8, ptr %6, i64 32
  call void @_ZNSt7__cxx1112basic_stringIcSt11char_traitsIcESaIcEED1Ev(ptr noundef nonnull align 8 dereferenceable(32) %32) #20
  call void @_ZNSt7__cxx1112basic_stringIcSt11char_traitsIcESaIcEED1Ev(ptr noundef nonnull align 8 dereferenceable(32) %6) #20
  resume { ptr, i32 } %eh.lpad-body
}